(lp0
F41842.5753
aF19248.8355
aF-8486.0684
aF-162977.3968
aF-428.752
aF-119283.9731
aF1361867.2288
aF-133783.823
aF-616977.8228
aF769194.7102
aF-243923.568
aF-551977.2081
aF-361265.5959
aF-593802.1665
aF679467.8632
aF-308799.618
aF-249388.3263
aF69949.7335
aF-912239.9783
aF363048.8445
aF-347809.4725
aF-156887.3344
aF-279099.5985
aF824717.5694
aF-195158.8629
aF-0.0
aF-0.0
aF-77312.1059
aF426602.2492
aF110811.8586
aF-1903739.2805
aF841797.7789
aF633446.1882
aF344442.97
aF1433023.1705
aF446597.1652
aF412487.9639
aF226718.9487
aF383927.7916
aF1055386.0651
aF-0.0
aF704290.802
aF325324.463
aF333953.2247
aF-338093.7613
aF-1119881.7771
aF1683680.4819
aF0.0
aF-835527.3037
aF-87960.9097
aF289082.4813
aF-20425.3116
aF-514464.7534
aF-172336.9857
aF-37933.7436
aF140488.1921
aF-608850.2658
aF-1684424.7927
aF991656.1302
aF-440365.0605
aF-1459211.1752
aF-23533.7203
aF-528696.6768
aF-303844.6203
aF746655.6076
aF-356733.6215
aF60953.7943
aF-168359.3889
aF26764.6472
aF-266128.2998
aF-0.0
aF-100255.3758
aF-98725.8374
aF374707.6536
aF-127841.4529
aF0.0
aF-114574.2092
aF26363.2782
aF-74551.2127
aF-376340.01
aF-90791.6197
aF49407.2129
aF112082.217
aF517041.3854
aF17541.0735
aF127318.451
aF-498569.2768
aF-89970.345
aF-657190.3353
aF-0.0
aF-0.0
aF-95015.4065
aF-2472.3867
aF59535.0875
aF-240091.2872
aF662561.1884
aF0.0
aF-240400.4302
aF0.0
aF-341683.1564
aF0.0
aF-76238.8415
aF72797.9215
aF0.0
aF0.0
aF-158656.0793
a.