(lp0
F54552.9183
aF24645.0443
aF1292.4827
aF-405691.3997
aF-8659.1026
aF-241937.3554
aF1508782.5549
aF-138496.1104
aF-686037.4957
aF713466.1528
aF-284578.7114
aF-666286.1012
aF47842.5358
aF-471063.0538
aF334431.1557
aF-358060.9268
aF-347318.9708
aF2852719.5323
aF-1102663.8831
aF-562889.3687
aF-866946.3492
aF540703.1301
aF-386408.8624
aF-0.0
aF269254.7878
aF-0.0
aF-0.0
aF-183801.6181
aF411985.7626
aF-517795.0141
aF0.0
aF549772.2696
aF650344.789
aF-1169300.7428
aF2161408.4464
aF319148.7831
aF224589.5797
aF-263395.5767
aF-277205.7813
aF1159226.7517
aF0.0
aF226909.4734
aF-25325.2569
aF565113.8782
aF-497841.69
aF-1685536.817
aF0.0
aF-0.0
aF-609522.0229
aF114284.334
aF-437968.7623
aF-400838.0082
aF-201579.1093
aF233729.8989
aF-1060980.6289
aF-195251.6615
aF-624859.4
aF1153036.5549
aF765192.2224
aF307091.7498
aF-1892852.3873
aF404019.4932
aF-0.0
aF-479271.8897
aF2366049.9964
aF-642902.7235
aF-10679.3917
aF-767594.8149
aF63850.7024
aF-363643.527
aF-0.0
aF-463446.0153
aF-479380.9114
aF-0.0
aF-395379.1028
aF0.0
aF-245460.3762
aF-0.0
aF-255414.1704
aF-21534.6831
aF-220258.0537
aF256278.6743
aF-400017.7298
aF30325.4055
aF235077.9846
aF-142668.6516
aF-329070.0225
aF-115355.3205
aF0.0
aF0.0
aF0.0
aF0.0
aF-109823.7798
aF-287569.2131
aF861191.0678
aF0.0
aF0.0
aF-128414.4228
aF0.0
aF-558193.8714
aF0.0
aF-119307.6907
aF316614.2616
aF0.0
aF0.0
aF-100473.2077
a.